target datalayout = "e-m:e-p270:32:32-p271:32:32-p272:64:64-i64:64-i128:128-f80:128-n8:16:32:64-S128"
target triple = "x86_64-unknown-linux-gnu"

%"class.google::protobuf::internal::InternalMetadata" = type { i64 }
%"class.google::protobuf::internal::HasBits" = type { [1 x i32] }
%"class.google::protobuf::internal::CachedSize" = type { i32 }
%"struct.google::protobuf::internal::ArenaStringPtr" = type { %"class.google::protobuf::internal::TaggedStringPtr" }
%"class.google::protobuf::internal::TaggedStringPtr" = type { ptr }
%"class.google::protobuf::RepeatedField" = type { i32, i32, ptr }
%"class.google::protobuf::Message" = type { %"class.google::protobuf::MessageLite" }
%"class.google::protobuf::MessageLite" = type { ptr, %"class.google::protobuf::internal::InternalMetadata" }
%"class.google::protobuf::internal::RepeatedPtrFieldBase" = type { ptr, i32, i32, ptr }
%"class.google::protobuf::FileDescriptorProto" = type { %"class.google::protobuf::Message", %union.anon.76 }
%union.anon.76 = type { %"struct.google::protobuf::FileDescriptorProto::Impl_" }
%"struct.google::protobuf::FileDescriptorProto::Impl_" = type <{ %"class.google::protobuf::internal::HasBits", %"class.google::protobuf::internal::CachedSize", %"class.google::protobuf::RepeatedPtrField", %"class.google::protobuf::RepeatedPtrField.68", %"class.google::protobuf::RepeatedPtrField.69", %"class.google::protobuf::RepeatedPtrField.75", %"class.google::protobuf::RepeatedPtrField.67", %"class.google::protobuf::RepeatedField", %"class.google::protobuf::RepeatedField", %"struct.google::protobuf::internal::ArenaStringPtr", %"struct.google::protobuf::internal::ArenaStringPtr", %"struct.google::protobuf::internal::ArenaStringPtr", ptr, ptr, i32, [4 x i8] }>
%"class.google::protobuf::RepeatedPtrField" = type { %"class.google::protobuf::internal::RepeatedPtrFieldBase" }
%"class.google::protobuf::RepeatedPtrField.68" = type { %"class.google::protobuf::internal::RepeatedPtrFieldBase" }
%"class.google::protobuf::RepeatedPtrField.69" = type { %"class.google::protobuf::internal::RepeatedPtrFieldBase" }
%"class.google::protobuf::RepeatedPtrField.75" = type { %"class.google::protobuf::internal::RepeatedPtrFieldBase" }
%"class.google::protobuf::RepeatedPtrField.67" = type { %"class.google::protobuf::internal::RepeatedPtrFieldBase" }

@_ZN6google8protobuf11FileOptionsD1Ev = unnamed_addr alias void (ptr), ptr @_ZN6google8protobuf11FileOptionsD2Ev
@_ZN6google8protobuf14SourceCodeInfoD1Ev = unnamed_addr alias void (ptr), ptr @_ZN6google8protobuf14SourceCodeInfoD2Ev

; Function Attrs: mustprogress nounwind uwtable
define linkonce_odr hidden void @_ZN6google8protobuf11MessageLiteD2Ev(ptr noundef nonnull align 8 dereferenceable(16) %this) unnamed_addr #5 comdat align 2 {
entry:
  %this.addr = alloca ptr, align 8
  store ptr %this, ptr %this.addr, align 8
  ret void
}

; Function Attrs: mustprogress nounwind uwtable
define linkonce_odr hidden void @_ZN6google8protobuf7MessageD2Ev(ptr noundef nonnull align 8 dereferenceable(16) %this) unnamed_addr #5 comdat align 2 {
entry:
  %this.addr = alloca ptr, align 8
  store ptr %this, ptr %this.addr, align 8
  %this1 = load ptr, ptr %this.addr, align 8
  call void @_ZN6google8protobuf11MessageLiteD2Ev(ptr noundef nonnull align 8 dereferenceable(16) %this1) #3
  ret void
}

; Function Attrs: mustprogress uwtable
define linkonce_odr hidden void @_ZN6google8protobuf19FileDescriptorProto10SharedDtorEv(ptr noundef nonnull align 8 dereferenceable(224) %this) #4 comdat align 2 {
entry:
  %this.addr = alloca ptr, align 8
  store ptr %this, ptr %this.addr, align 8
  %this1 = load ptr, ptr %this.addr, align 8
  %0 = getelementptr inbounds %"class.google::protobuf::FileDescriptorProto", ptr %this1, i32 0, i32 1
  %name_ = getelementptr inbounds %"struct.google::protobuf::FileDescriptorProto::Impl_", ptr %0, i32 0, i32 9
  call void @_ZN6google8protobuf8internal14ArenaStringPtr7DestroyEv(ptr noundef nonnull align 8 dereferenceable(8) %name_)
  %1 = getelementptr inbounds %"class.google::protobuf::FileDescriptorProto", ptr %this1, i32 0, i32 1
  %package_ = getelementptr inbounds %"struct.google::protobuf::FileDescriptorProto::Impl_", ptr %1, i32 0, i32 10
  call void @_ZN6google8protobuf8internal14ArenaStringPtr7DestroyEv(ptr noundef nonnull align 8 dereferenceable(8) %package_)
  %2 = getelementptr inbounds %"class.google::protobuf::FileDescriptorProto", ptr %this1, i32 0, i32 1
  %syntax_ = getelementptr inbounds %"struct.google::protobuf::FileDescriptorProto::Impl_", ptr %2, i32 0, i32 11
  call void @_ZN6google8protobuf8internal14ArenaStringPtr7DestroyEv(ptr noundef nonnull align 8 dereferenceable(8) %syntax_)
  %3 = getelementptr inbounds %"class.google::protobuf::FileDescriptorProto", ptr %this1, i32 0, i32 1
  %options_ = getelementptr inbounds %"struct.google::protobuf::FileDescriptorProto::Impl_", ptr %3, i32 0, i32 12
  %4 = load ptr, ptr %options_, align 8
  %isnull = icmp eq ptr %4, null
  br i1 %isnull, label %delete.end, label %delete.notnull

delete.notnull:                                   ; preds = %entry
  call void @_ZN6google8protobuf11FileOptionsD1Ev(ptr noundef nonnull align 8 dereferenceable(176) %4) #3
  call void @_ZdlPv(ptr noundef %4) #18
  br label %delete.end

delete.end:                                       ; preds = %delete.notnull, %entry
  %5 = getelementptr inbounds %"class.google::protobuf::FileDescriptorProto", ptr %this1, i32 0, i32 1
  %source_code_info_ = getelementptr inbounds %"struct.google::protobuf::FileDescriptorProto::Impl_", ptr %5, i32 0, i32 13
  %6 = load ptr, ptr %source_code_info_, align 8
  %isnull2 = icmp eq ptr %6, null
  br i1 %isnull2, label %delete.end4, label %delete.notnull3

delete.notnull3:                                  ; preds = %delete.end
  call void @_ZN6google8protobuf14SourceCodeInfoD1Ev(ptr noundef nonnull align 8 dereferenceable(48) %6) #3
  call void @_ZdlPv(ptr noundef %6) #18
  br label %delete.end4

delete.end4:                                      ; preds = %delete.notnull3, %delete.end
  %7 = getelementptr inbounds %"class.google::protobuf::FileDescriptorProto", ptr %this1, i32 0, i32 1
  call void @_ZN6google8protobuf19FileDescriptorProto5Impl_D2Ev(ptr noundef nonnull align 8 dereferenceable(204) %7) #3
  ret void
}

; Function Attrs: mustprogress uwtable
define linkonce_odr hidden void @_ZN6google8protobuf8internal16InternalMetadata6DeleteINS0_15UnknownFieldSetEEEvv(ptr noundef nonnull align 8 dereferenceable(8) %this) #4 comdat align 2 {
entry:
  %this.addr.i2 = alloca ptr, align 8
  %this.addr.i = alloca ptr, align 8
  %this.addr = alloca ptr, align 8
  store ptr %this, ptr %this.addr, align 8
  %this1 = load ptr, ptr %this.addr, align 8
  store ptr %this1, ptr %this.addr.i, align 8
  %this1.i = load ptr, ptr %this.addr.i, align 8
  store ptr %this1.i, ptr %this.addr.i2, align 8
  %this1.i3 = load ptr, ptr %this.addr.i2, align 8
  %0 = load i64, ptr %this1.i3, align 8
  %and.i = and i64 %0, 1
  %tobool.i = icmp ne i64 %and.i, 0
  br i1 %tobool.i, label %if.then, label %if.end

if.then:                                          ; preds = %entry
  call void @_ZN6google8protobuf8internal16InternalMetadata21DeleteOutOfLineHelperINS0_15UnknownFieldSetEEEvv(ptr noundef nonnull align 8 dereferenceable(8) %this1)
  br label %if.end

if.end:                                           ; preds = %if.then, %entry
  ret void
}

; Function Attrs: mustprogress nounwind uwtable
define void @_ZN6google8protobuf19FileDescriptorProtoD2Ev(ptr noundef nonnull align 8 dereferenceable(224) %this) unnamed_addr #5 align 2 personality ptr @__gxx_personality_v0 {
entry:
  %this.addr = alloca ptr, align 8
  store ptr %this, ptr %this.addr, align 8
  %this1 = load ptr, ptr %this.addr, align 8
  %_internal_metadata_ = getelementptr inbounds %"class.google::protobuf::MessageLite", ptr %this1, i32 0, i32 1
  invoke void @_ZN6google8protobuf8internal16InternalMetadata6DeleteINS0_15UnknownFieldSetEEEvv(ptr noundef nonnull align 8 dereferenceable(8) %_internal_metadata_)
          to label %invoke.cont unwind label %terminate.lpad

invoke.cont:                                      ; preds = %entry
  invoke void @_ZN6google8protobuf19FileDescriptorProto10SharedDtorEv(ptr noundef nonnull align 8 dereferenceable(224) %this1)
          to label %invoke.cont2 unwind label %terminate.lpad

invoke.cont2:                                     ; preds = %invoke.cont
  call void @_ZN6google8protobuf7MessageD2Ev(ptr noundef nonnull align 8 dereferenceable(16) %this1) #3
  ret void

terminate.lpad:                                   ; preds = %invoke.cont, %entry
  %0 = landingpad { ptr, i32 }
          catch ptr null
  %1 = extractvalue { ptr, i32 } %0, 0
  call void @__clang_call_terminate(ptr %1) #17
  unreachable
}