; Function Attrs: mustprogress nounwind uwtable
define void @_ZN6google8protobuf19FileDescriptorProtoD2Ev(ptr noundef nonnull align 8 dereferenceable(224) %this) unnamed_addr #6 align 2 personality ptr @__gxx_personality_v0 {
entry:
  %_internal_metadata_ = getelementptr inbounds i8, ptr %this, i64 8
  %0 = load i64, ptr %_internal_metadata_, align 8
  %and.i.i = and i64 %0, 1
  %tobool.i.not.i = icmp eq i64 %and.i.i, 0
  br i1 %tobool.i.not.i, label %invoke.cont, label %if.then.i

if.then.i:                                        ; preds = %entry
  invoke void @_ZN6google8protobuf8internal16InternalMetadata21DeleteOutOfLineHelperINS0_15UnknownFieldSetEEEvv(ptr noundef nonnull align 8 dereferenceable(8) %_internal_metadata_)
          to label %invoke.cont unwind label %terminate.lpad

invoke.cont:                                      ; preds = %entry, %if.then.i
  %name_.i = getelementptr inbounds i8, ptr %this, i64 176
  invoke void @_ZN6google8protobuf8internal14ArenaStringPtr7DestroyEv(ptr noundef nonnull align 8 dereferenceable(8) %name_.i)
          to label %.noexc1 unwind label %terminate.lpad

.noexc1:                                          ; preds = %invoke.cont
  %package_.i = getelementptr inbounds i8, ptr %this, i64 184
  invoke void @_ZN6google8protobuf8internal14ArenaStringPtr7DestroyEv(ptr noundef nonnull align 8 dereferenceable(8) %package_.i)
          to label %.noexc2 unwind label %terminate.lpad

.noexc2:                                          ; preds = %.noexc1
  %syntax_.i = getelementptr inbounds i8, ptr %this, i64 192
  invoke void @_ZN6google8protobuf8internal14ArenaStringPtr7DestroyEv(ptr noundef nonnull align 8 dereferenceable(8) %syntax_.i)
          to label %.noexc3 unwind label %terminate.lpad

.noexc3:                                          ; preds = %.noexc2
  %options_.i = getelementptr inbounds i8, ptr %this, i64 200
  %1 = load ptr, ptr %options_.i, align 8
  %isnull.i = icmp eq ptr %1, null
  br i1 %isnull.i, label %delete.end.i, label %delete.notnull.i

delete.notnull.i:                                 ; preds = %.noexc3
  tail call void @_ZN6google8protobuf11FileOptionsD1Ev(ptr noundef nonnull align 8 dereferenceable(176) %1) #22
  tail call void @_ZdlPv(ptr noundef nonnull %1) #23
  br label %delete.end.i

delete.end.i:                                     ; preds = %delete.notnull.i, %.noexc3
  %source_code_info_.i = getelementptr inbounds i8, ptr %this, i64 208
  %2 = load ptr, ptr %source_code_info_.i, align 8
  %isnull2.i = icmp eq ptr %2, null
  br i1 %isnull2.i, label %invoke.cont2, label %delete.notnull3.i

delete.notnull3.i:                                ; preds = %delete.end.i
  tail call void @_ZN6google8protobuf14SourceCodeInfoD1Ev(ptr noundef nonnull align 8 dereferenceable(48) %2) #22
  tail call void @_ZdlPv(ptr noundef nonnull %2) #23
  br label %invoke.cont2

invoke.cont2:                                     ; preds = %delete.notnull3.i, %delete.end.i
  %3 = getelementptr inbounds i8, ptr %this, i64 16
  tail call void @_ZN6google8protobuf19FileDescriptorProto5Impl_D2Ev(ptr noundef nonnull align 8 dereferenceable(204) %3) #22
  ret void

terminate.lpad:                                   ; preds = %.noexc2, %.noexc1, %invoke.cont, %if.then.i
  %4 = landingpad { ptr, i32 }
          catch ptr null
  %5 = extractvalue { ptr, i32 } %4, 0
  tail call void @__clang_call_terminate(ptr %5) #21
  unreachable
}